; Function Attrs: mustprogress uwtable
define void @_ZN6google8protobuf2io19OstreamOutputStreamC2EPSoi(ptr noundef nonnull align 8 dereferenceable(72) %0, ptr noundef %1, i32 noundef %2) unnamed_addr #3 align 2 personality ptr @__gxx_personality_v0 {
  store ptr getelementptr inbounds inrange(-16, 56) (i8, ptr @_ZTVN6google8protobuf2io19OstreamOutputStreamE, i64 16), ptr %0, align 8
  %4 = getelementptr inbounds i8, ptr %0, i64 8
  tail call void @_ZN6google8protobuf2io19OstreamOutputStream26CopyingOstreamOutputStreamC1EPSo(ptr noundef nonnull align 8 dereferenceable(16) %4, ptr noundef %1)
  %5 = getelementptr inbounds i8, ptr %0, i64 24
  invoke void @_ZN6google8protobuf2io26CopyingOutputStreamAdaptorC1EPNS1_19CopyingOutputStreamEi(ptr noundef nonnull align 8 dereferenceable(48) %5, ptr noundef nonnull %4, i32 noundef %2)
          to label %6 unwind label %7

6:                                                ; preds = %3
  ret void

7:                                                ; preds = %3
  %8 = landingpad { ptr, i32 }
          cleanup
  tail call void @_ZN6google8protobuf2io19OstreamOutputStream26CopyingOstreamOutputStreamD1Ev(ptr noundef nonnull align 8 dereferenceable(16) %4) #12
  resume { ptr, i32 } %8
}